target datalayout = "e-m:e-p270:32:32-p271:32:32-p272:64:64-i64:64-i128:128-f80:128-n8:16:32:64-S128"
target triple = "x86_64-pc-linux-gnu"

%struct.dlist_node = type { ptr, ptr }
%struct.config_generic = type { ptr, i32, i32, ptr, ptr, i32, i32, i32, i32, i32, i32, i32, i32, i32, ptr, ptr, %struct.dlist_node, %struct.slist_node, %struct.slist_node, ptr, ptr, i32 }
%struct.slist_node = type { ptr }

@wal_consistency_checking_string = dso_local global ptr null, align 8
@check_wal_consistency_checking_deferred = internal global i8 0, align 1
@.str.27 = private unnamed_addr constant [25 x i8] c"wal_consistency_checking\00", align 1

; Function Attrs: nounwind uwtable
define dso_local void @InitializeWalConsistencyChecking() #0 {
  %1 = alloca ptr, align 8
  %2 = load i8, ptr @check_wal_consistency_checking_deferred, align 1, !range !4, !noundef !5
  %3 = trunc i8 %2 to i1
  br i1 %3, label %4, label %17

4:                                                ; preds = %0
  call void @llvm.lifetime.start.p0(i64 8, ptr %1) #16
  %5 = call ptr @find_option(ptr noundef @.str.27, i1 noundef zeroext false, i1 noundef zeroext false, i32 noundef 21)
  store ptr %5, ptr %1, align 8
  store i8 0, ptr @check_wal_consistency_checking_deferred, align 1
  %6 = load ptr, ptr @wal_consistency_checking_string, align 8
  %7 = load ptr, ptr %1, align 8
  %8 = getelementptr inbounds nuw %struct.config_generic, ptr %7, i32 0, i32 10
  %9 = load i32, ptr %8, align 4
  %10 = load ptr, ptr %1, align 8
  %11 = getelementptr inbounds nuw %struct.config_generic, ptr %10, i32 0, i32 8
  %12 = load i32, ptr %11, align 4
  %13 = load ptr, ptr %1, align 8
  %14 = getelementptr inbounds nuw %struct.config_generic, ptr %13, i32 0, i32 12
  %15 = load i32, ptr %14, align 4
  %16 = call i32 @set_config_option_ext(ptr noundef @.str.27, ptr noundef %6, i32 noundef %9, i32 noundef %12, i32 noundef %15, i32 noundef 0, i1 noundef zeroext true, i32 noundef 21, i1 noundef zeroext false)
  call void @llvm.lifetime.end.p0(i64 8, ptr %1) #16
  br label %17

17:                                               ; preds = %4, %0
  ret void
}