; Function Attrs: nounwind uwtable
define dso_local void @InitializeWalConsistencyChecking() local_unnamed_addr #0 {
  %.b3 = load i1, ptr @check_wal_consistency_checking_deferred, align 1
  br i1 %.b3, label %1, label %11

1:                                                ; preds = %0
  %2 = tail call ptr @find_option(ptr noundef nonnull @.str.27, i1 noundef zeroext false, i1 noundef zeroext false, i32 noundef 21) #26
  store i1 false, ptr @check_wal_consistency_checking_deferred, align 1
  %3 = load ptr, ptr @wal_consistency_checking_string, align 8
  %4 = getelementptr inbounds nuw i8, ptr %2, i64 52
  %5 = load i32, ptr %4, align 4
  %6 = getelementptr inbounds nuw i8, ptr %2, i64 44
  %7 = load i32, ptr %6, align 4
  %8 = getelementptr inbounds nuw i8, ptr %2, i64 60
  %9 = load i32, ptr %8, align 4
  %10 = tail call i32 @set_config_option_ext(ptr noundef nonnull @.str.27, ptr noundef %3, i32 noundef %5, i32 noundef %7, i32 noundef %9, i32 noundef 0, i1 noundef zeroext true, i32 noundef 21, i1 noundef zeroext false) #26
  br label %11

11:                                               ; preds = %1, %0
  ret void
}